;--------------------------------------------------------
; File Created by SDCC : FreeWare ANSI-C Compiler
; Version 2.6.0 #4309 (Jul 28 2006)
; This file generated Sun Nov 27 23:21:17 2016
;--------------------------------------------------------
	.module main
	.optsdcc -mmcs51 --model-large
	
;--------------------------------------------------------
; Public variables in this module
;--------------------------------------------------------
	.globl _timer_isr
	.globl _ext_zero
	.globl _main
	.globl __sdcc_external_startup
	.globl _P5_7
	.globl _P5_6
	.globl _P5_5
	.globl _P5_4
	.globl _P5_3
	.globl _P5_2
	.globl _P5_1
	.globl _P5_0
	.globl _P4_7
	.globl _P4_6
	.globl _P4_5
	.globl _P4_4
	.globl _P4_3
	.globl _P4_2
	.globl _P4_1
	.globl _P4_0
	.globl _PX0L
	.globl _PT0L
	.globl _PX1L
	.globl _PT1L
	.globl _PLS
	.globl _PT2L
	.globl _PPCL
	.globl _EC
	.globl _CCF0
	.globl _CCF1
	.globl _CCF2
	.globl _CCF3
	.globl _CCF4
	.globl _CR
	.globl _CF
	.globl _TF2
	.globl _EXF2
	.globl _RCLK
	.globl _TCLK
	.globl _EXEN2
	.globl _TR2
	.globl _C_T2
	.globl _CP_RL2
	.globl _T2CON_7
	.globl _T2CON_6
	.globl _T2CON_5
	.globl _T2CON_4
	.globl _T2CON_3
	.globl _T2CON_2
	.globl _T2CON_1
	.globl _T2CON_0
	.globl _PT2
	.globl _ET2
	.globl _CY
	.globl _AC
	.globl _F0
	.globl _RS1
	.globl _RS0
	.globl _OV
	.globl _F1
	.globl _P
	.globl _PS
	.globl _PT1
	.globl _PX1
	.globl _PT0
	.globl _PX0
	.globl _RD
	.globl _WR
	.globl _T1
	.globl _T0
	.globl _INT1
	.globl _INT0
	.globl _TXD
	.globl _RXD
	.globl _P3_7
	.globl _P3_6
	.globl _P3_5
	.globl _P3_4
	.globl _P3_3
	.globl _P3_2
	.globl _P3_1
	.globl _P3_0
	.globl _EA
	.globl _ES
	.globl _ET1
	.globl _EX1
	.globl _ET0
	.globl _EX0
	.globl _P2_7
	.globl _P2_6
	.globl _P2_5
	.globl _P2_4
	.globl _P2_3
	.globl _P2_2
	.globl _P2_1
	.globl _P2_0
	.globl _SM0
	.globl _SM1
	.globl _SM2
	.globl _REN
	.globl _TB8
	.globl _RB8
	.globl _TI
	.globl _RI
	.globl _P1_7
	.globl _P1_6
	.globl _P1_5
	.globl _P1_4
	.globl _P1_3
	.globl _P1_2
	.globl _P1_1
	.globl _P1_0
	.globl _TF1
	.globl _TR1
	.globl _TF0
	.globl _TR0
	.globl _IE1
	.globl _IT1
	.globl _IE0
	.globl _IT0
	.globl _P0_7
	.globl _P0_6
	.globl _P0_5
	.globl _P0_4
	.globl _P0_3
	.globl _P0_2
	.globl _P0_1
	.globl _P0_0
	.globl _EECON
	.globl _KBF
	.globl _KBE
	.globl _KBLS
	.globl _BRL
	.globl _BDRCON
	.globl _T2MOD
	.globl _SPDAT
	.globl _SPSTA
	.globl _SPCON
	.globl _SADEN
	.globl _SADDR
	.globl _WDTPRG
	.globl _WDTRST
	.globl _P5
	.globl _P4
	.globl _IPH1
	.globl _IPL1
	.globl _IPH0
	.globl _IPL0
	.globl _IEN1
	.globl _IEN0
	.globl _CMOD
	.globl _CL
	.globl _CH
	.globl _CCON
	.globl _CCAPM4
	.globl _CCAPM3
	.globl _CCAPM2
	.globl _CCAPM1
	.globl _CCAPM0
	.globl _CCAP4L
	.globl _CCAP3L
	.globl _CCAP2L
	.globl _CCAP1L
	.globl _CCAP0L
	.globl _CCAP4H
	.globl _CCAP3H
	.globl _CCAP2H
	.globl _CCAP1H
	.globl _CCAP0H
	.globl _CKCKON1
	.globl _CKCKON0
	.globl _CKRL
	.globl _AUXR1
	.globl _AUXR
	.globl _TH2
	.globl _TL2
	.globl _RCAP2H
	.globl _RCAP2L
	.globl _T2CON
	.globl _B
	.globl _ACC
	.globl _PSW
	.globl _IP
	.globl _P3
	.globl _IE
	.globl _P2
	.globl _SBUF
	.globl _SCON
	.globl _P1
	.globl _TH1
	.globl _TH0
	.globl _TL1
	.globl _TL0
	.globl _TMOD
	.globl _TCON
	.globl _PCON
	.globl _DPH
	.globl _DPL
	.globl _SP
	.globl _P0
	.globl _timers
	.globl _flag
	.globl _sensor_data
	.globl _s
	.globl _m
	.globl _h
	.globl _i
	.globl _io_counter
	.globl _nmi
	.globl _nsec
	.globl _nms
	.globl _cnt
;--------------------------------------------------------
; special function registers
;--------------------------------------------------------
	.area RSEG    (DATA)
_P0	=	0x0080
_SP	=	0x0081
_DPL	=	0x0082
_DPH	=	0x0083
_PCON	=	0x0087
_TCON	=	0x0088
_TMOD	=	0x0089
_TL0	=	0x008a
_TL1	=	0x008b
_TH0	=	0x008c
_TH1	=	0x008d
_P1	=	0x0090
_SCON	=	0x0098
_SBUF	=	0x0099
_P2	=	0x00a0
_IE	=	0x00a8
_P3	=	0x00b0
_IP	=	0x00b8
_PSW	=	0x00d0
_ACC	=	0x00e0
_B	=	0x00f0
_T2CON	=	0x00c8
_RCAP2L	=	0x00ca
_RCAP2H	=	0x00cb
_TL2	=	0x00cc
_TH2	=	0x00cd
_AUXR	=	0x008e
_AUXR1	=	0x00a2
_CKRL	=	0x0097
_CKCKON0	=	0x008f
_CKCKON1	=	0x008f
_CCAP0H	=	0x00fa
_CCAP1H	=	0x00fb
_CCAP2H	=	0x00fc
_CCAP3H	=	0x00fd
_CCAP4H	=	0x00fe
_CCAP0L	=	0x00ea
_CCAP1L	=	0x00eb
_CCAP2L	=	0x00ec
_CCAP3L	=	0x00ed
_CCAP4L	=	0x00ee
_CCAPM0	=	0x00da
_CCAPM1	=	0x00db
_CCAPM2	=	0x00dc
_CCAPM3	=	0x00dd
_CCAPM4	=	0x00de
_CCON	=	0x00d8
_CH	=	0x00f9
_CL	=	0x00e9
_CMOD	=	0x00d9
_IEN0	=	0x00a8
_IEN1	=	0x00b1
_IPL0	=	0x00b8
_IPH0	=	0x00b7
_IPL1	=	0x00b2
_IPH1	=	0x00b3
_P4	=	0x00c0
_P5	=	0x00d8
_WDTRST	=	0x00a6
_WDTPRG	=	0x00a7
_SADDR	=	0x00a9
_SADEN	=	0x00b9
_SPCON	=	0x00c3
_SPSTA	=	0x00c4
_SPDAT	=	0x00c5
_T2MOD	=	0x00c9
_BDRCON	=	0x009b
_BRL	=	0x009a
_KBLS	=	0x009c
_KBE	=	0x009d
_KBF	=	0x009e
_EECON	=	0x00d2
;--------------------------------------------------------
; special function bits
;--------------------------------------------------------
	.area RSEG    (DATA)
_P0_0	=	0x0080
_P0_1	=	0x0081
_P0_2	=	0x0082
_P0_3	=	0x0083
_P0_4	=	0x0084
_P0_5	=	0x0085
_P0_6	=	0x0086
_P0_7	=	0x0087
_IT0	=	0x0088
_IE0	=	0x0089
_IT1	=	0x008a
_IE1	=	0x008b
_TR0	=	0x008c
_TF0	=	0x008d
_TR1	=	0x008e
_TF1	=	0x008f
_P1_0	=	0x0090
_P1_1	=	0x0091
_P1_2	=	0x0092
_P1_3	=	0x0093
_P1_4	=	0x0094
_P1_5	=	0x0095
_P1_6	=	0x0096
_P1_7	=	0x0097
_RI	=	0x0098
_TI	=	0x0099
_RB8	=	0x009a
_TB8	=	0x009b
_REN	=	0x009c
_SM2	=	0x009d
_SM1	=	0x009e
_SM0	=	0x009f
_P2_0	=	0x00a0
_P2_1	=	0x00a1
_P2_2	=	0x00a2
_P2_3	=	0x00a3
_P2_4	=	0x00a4
_P2_5	=	0x00a5
_P2_6	=	0x00a6
_P2_7	=	0x00a7
_EX0	=	0x00a8
_ET0	=	0x00a9
_EX1	=	0x00aa
_ET1	=	0x00ab
_ES	=	0x00ac
_EA	=	0x00af
_P3_0	=	0x00b0
_P3_1	=	0x00b1
_P3_2	=	0x00b2
_P3_3	=	0x00b3
_P3_4	=	0x00b4
_P3_5	=	0x00b5
_P3_6	=	0x00b6
_P3_7	=	0x00b7
_RXD	=	0x00b0
_TXD	=	0x00b1
_INT0	=	0x00b2
_INT1	=	0x00b3
_T0	=	0x00b4
_T1	=	0x00b5
_WR	=	0x00b6
_RD	=	0x00b7
_PX0	=	0x00b8
_PT0	=	0x00b9
_PX1	=	0x00ba
_PT1	=	0x00bb
_PS	=	0x00bc
_P	=	0x00d0
_F1	=	0x00d1
_OV	=	0x00d2
_RS0	=	0x00d3
_RS1	=	0x00d4
_F0	=	0x00d5
_AC	=	0x00d6
_CY	=	0x00d7
_ET2	=	0x00ad
_PT2	=	0x00bd
_T2CON_0	=	0x00c8
_T2CON_1	=	0x00c9
_T2CON_2	=	0x00ca
_T2CON_3	=	0x00cb
_T2CON_4	=	0x00cc
_T2CON_5	=	0x00cd
_T2CON_6	=	0x00ce
_T2CON_7	=	0x00cf
_CP_RL2	=	0x00c8
_C_T2	=	0x00c9
_TR2	=	0x00ca
_EXEN2	=	0x00cb
_TCLK	=	0x00cc
_RCLK	=	0x00cd
_EXF2	=	0x00ce
_TF2	=	0x00cf
_CF	=	0x00df
_CR	=	0x00de
_CCF4	=	0x00dc
_CCF3	=	0x00db
_CCF2	=	0x00da
_CCF1	=	0x00d9
_CCF0	=	0x00d8
_EC	=	0x00ae
_PPCL	=	0x00be
_PT2L	=	0x00bd
_PLS	=	0x00bc
_PT1L	=	0x00bb
_PX1L	=	0x00ba
_PT0L	=	0x00b9
_PX0L	=	0x00b8
_P4_0	=	0x00c0
_P4_1	=	0x00c1
_P4_2	=	0x00c2
_P4_3	=	0x00c3
_P4_4	=	0x00c4
_P4_5	=	0x00c5
_P4_6	=	0x00c6
_P4_7	=	0x00c7
_P5_0	=	0x00d8
_P5_1	=	0x00d9
_P5_2	=	0x00da
_P5_3	=	0x00db
_P5_4	=	0x00dc
_P5_5	=	0x00dd
_P5_6	=	0x00de
_P5_7	=	0x00df
;--------------------------------------------------------
; overlayable register banks
;--------------------------------------------------------
	.area REG_BANK_0	(REL,OVR,DATA)
	.ds 8
;--------------------------------------------------------
; internal ram data
;--------------------------------------------------------
	.area DSEG    (DATA)
;--------------------------------------------------------
; overlayable items in internal ram 
;--------------------------------------------------------
	.area OSEG    (OVR,DATA)
;--------------------------------------------------------
; Stack segment in internal ram 
;--------------------------------------------------------
	.area	SSEG	(DATA)
__start__stack:
	.ds	1

;--------------------------------------------------------
; indirectly addressable internal ram data
;--------------------------------------------------------
	.area ISEG    (DATA)
;--------------------------------------------------------
; bit data
;--------------------------------------------------------
	.area BSEG    (BIT)
;--------------------------------------------------------
; paged external ram data
;--------------------------------------------------------
	.area PSEG    (PAG,XDATA)
;--------------------------------------------------------
; external ram data
;--------------------------------------------------------
	.area XSEG    (XDATA)
_cnt::
	.ds 3
_nms::
	.ds 6
_nsec::
	.ds 6
_nmi::
	.ds 6
_io_counter::
	.ds 2
_i::
	.ds 2
_h::
	.ds 1
_m::
	.ds 1
_s::
	.ds 1
_sensor_data::
	.ds 3
;--------------------------------------------------------
; external initialized ram data
;--------------------------------------------------------
	.area XISEG   (XDATA)
_flag::
	.ds 1
_timers::
	.ds 2
	.area HOME    (CODE)
	.area GSINIT0 (CODE)
	.area GSINIT1 (CODE)
	.area GSINIT2 (CODE)
	.area GSINIT3 (CODE)
	.area GSINIT4 (CODE)
	.area GSINIT5 (CODE)
	.area GSINIT  (CODE)
	.area GSFINAL (CODE)
	.area CSEG    (CODE)
;--------------------------------------------------------
; interrupt vector 
;--------------------------------------------------------
	.area HOME    (CODE)
__interrupt_vect:
	ljmp	__sdcc_gsinit_startup
	ljmp	_ext_zero
	.ds	5
	ljmp	_timer_isr
;--------------------------------------------------------
; global & static initialisations
;--------------------------------------------------------
	.area HOME    (CODE)
	.area GSINIT  (CODE)
	.area GSFINAL (CODE)
	.area GSINIT  (CODE)
	.globl __sdcc_gsinit_startup
	.globl __sdcc_program_startup
	.globl __start__stack
	.globl __mcs51_genXINIT
	.globl __mcs51_genXRAMCLEAR
	.globl __mcs51_genRAMCLEAR
	.area GSFINAL (CODE)
	ljmp	__sdcc_program_startup
;--------------------------------------------------------
; Home
;--------------------------------------------------------
	.area HOME    (CODE)
	.area CSEG    (CODE)
__sdcc_program_startup:
	lcall	_main
;	return from main will lock up
	sjmp .
;--------------------------------------------------------
; code
;--------------------------------------------------------
	.area CSEG    (CODE)
;------------------------------------------------------------
;Allocation info for local variables in function '_sdcc_external_startup'
;------------------------------------------------------------
;------------------------------------------------------------
;	main.c:37: _sdcc_external_startup()
;	-----------------------------------------
;	 function _sdcc_external_startup
;	-----------------------------------------
__sdcc_external_startup:
	ar2 = 0x02
	ar3 = 0x03
	ar4 = 0x04
	ar5 = 0x05
	ar6 = 0x06
	ar7 = 0x07
	ar0 = 0x00
	ar1 = 0x01
;	main.c:39: AUXR |= 0x0C;
;	genOr
	orl	_AUXR,#0x0C
;	main.c:41: return 0;
;	genRet
;	Peephole 182.b	used 16 bit load of dptr
	mov	dptr,#0x0000
;	Peephole 300	removed redundant label 00101$
	ret
;------------------------------------------------------------
;Allocation info for local variables in function 'main'
;------------------------------------------------------------
;pressure                  Allocated with name '_main_pressure_1_1'
;msb                       Allocated with name '_main_msb_1_1'
;csb                       Allocated with name '_main_csb_1_1'
;lsb                       Allocated with name '_main_lsb_1_1'
;------------------------------------------------------------
;	main.c:46: void main(void)
;	-----------------------------------------
;	 function main
;	-----------------------------------------
_main:
;	main.c:50: lcd_init();                                     // Initilaize LCD
;	genCall
	lcall	_lcd_init
;	main.c:51: uart_init()	;                                   // Initilalize UART
;	genCall
	lcall	_uart_init
;	main.c:53: P1_0=0;
;	genAssign
	clr	_P1_0
;	main.c:55: eereset();                                      // EEPROM is reset at every powerup
;	genCall
	lcall	_eereset
;	main.c:62: while(1)
00102$:
;	main.c:66: delay_ms(100);
;	genCall
;	Peephole 182.b	used 16 bit load of dptr
	mov	dptr,#0x0064
	lcall	_delay_ms
;	main.c:69: printf_tiny("\n\rTemp: %d Celcius",(TEMP_calibration()));
;	genCall
	lcall	_TEMP_calibration
	mov	r2,dpl
	mov	r3,dph
;	genIpush
	push	ar2
	push	ar3
;	genIpush
	mov	a,#__str_0
	push	acc
	mov	a,#(__str_0 >> 8)
	push	acc
;	genCall
	lcall	_printf_tiny
	mov	a,sp
	add	a,#0xfc
	mov	sp,a
;	main.c:70: delay_ms(100);
;	genCall
;	Peephole 182.b	used 16 bit load of dptr
	mov	dptr,#0x0064
	lcall	_delay_ms
;	main.c:71: printf_tiny("\tHUMIDITY: %d RH",HUMIDITY_calibration());
;	genCall
	lcall	_HUMIDITY_calibration
	mov	r2,dpl
	mov	r3,dph
;	genIpush
	push	ar2
	push	ar3
;	genIpush
	mov	a,#__str_1
	push	acc
	mov	a,#(__str_1 >> 8)
	push	acc
;	genCall
	lcall	_printf_tiny
	mov	a,sp
	add	a,#0xfc
	mov	sp,a
;	main.c:72: delay_ms(100);
;	genCall
;	Peephole 182.b	used 16 bit load of dptr
	mov	dptr,#0x0064
	lcall	_delay_ms
;	main.c:73: printf_tiny("\LIGHT : %d ",LIGHT_calibration());
;	genCall
	lcall	_LIGHT_calibration
	mov	r2,dpl
	mov	r3,dph
;	genIpush
	push	ar2
	push	ar3
;	genIpush
	mov	a,#__str_2
	push	acc
	mov	a,#(__str_2 >> 8)
	push	acc
;	genCall
	lcall	_printf_tiny
	mov	a,sp
	add	a,#0xfc
	mov	sp,a
;	Peephole 112.b	changed ljmp to sjmp
	sjmp	00102$
;	Peephole 259.a	removed redundant label 00104$ and ret
;
;------------------------------------------------------------
;Allocation info for local variables in function 'ext_zero'
;------------------------------------------------------------
;------------------------------------------------------------
;	main.c:110: void ext_zero() interrupt 0
;	-----------------------------------------
;	 function ext_zero
;	-----------------------------------------
_ext_zero:
	push	acc
	push	b
	push	dpl
	push	dph
	push	(0+2)
	push	(0+3)
	push	(0+4)
	push	(0+5)
	push	(0+6)
	push	(0+7)
	push	(0+0)
	push	(0+1)
	push	psw
	mov	psw,#0x00
;	main.c:113: io_counter++;
;	genAssign
	mov	dptr,#_io_counter
	movx	a,@dptr
	mov	r2,a
	inc	dptr
	movx	a,@dptr
	mov	r3,a
;	genPlus
	mov	dptr,#_io_counter
;     genPlusIncr
	mov	a,#0x01
;	Peephole 236.a	used r2 instead of ar2
	add	a,r2
	movx	@dptr,a
;	Peephole 181	changed mov to clr
	clr	a
;	Peephole 236.b	used r3 instead of ar3
	addc	a,r3
	inc	dptr
	movx	@dptr,a
;	main.c:114: if(io_counter==32)
;	genAssign
	mov	dptr,#_io_counter
	movx	a,@dptr
	mov	r2,a
	inc	dptr
	movx	a,@dptr
	mov	r3,a
;	genCmpEq
;	gencjneshort
;	Peephole 112.b	changed ljmp to sjmp
;	Peephole 198.a	optimized misc jump sequence
	cjne	r2,#0x20,00102$
	cjne	r3,#0x00,00102$
;	Peephole 200.b	removed redundant sjmp
;	Peephole 300	removed redundant label 00109$
;	Peephole 300	removed redundant label 00110$
;	main.c:116: io_counter=0;
;	genAssign
	mov	dptr,#_io_counter
	clr	a
	movx	@dptr,a
	inc	dptr
	movx	@dptr,a
00102$:
;	main.c:118: if(io_counter%2==0){io_cnt(io_counter/2);}
;	genAssign
	mov	dptr,#_io_counter
	movx	a,@dptr
	mov	r2,a
	inc	dptr
	movx	a,@dptr
	mov	r3,a
;	genAnd
	mov	a,r2
;	genIfxJump
;	Peephole 108.e	removed ljmp by inverse jump logic
	jb	acc.0,00105$
;	Peephole 300	removed redundant label 00111$
;	genRightShift
;	genRightShiftLiteral
;	genrshTwo
	mov	a,r3
	clr	c
	rrc	a
	xch	a,r2
	rrc	a
	xch	a,r2
	mov	r3,a
;	genCall
	mov	dpl,r2
	mov	dph,r3
	lcall	_io_cnt
00105$:
	pop	psw
	pop	(0+1)
	pop	(0+0)
	pop	(0+7)
	pop	(0+6)
	pop	(0+5)
	pop	(0+4)
	pop	(0+3)
	pop	(0+2)
	pop	dph
	pop	dpl
	pop	b
	pop	acc
	reti
;------------------------------------------------------------
;Allocation info for local variables in function 'timer_isr'
;------------------------------------------------------------
;c                         Allocated with name '_timer_isr_c_1_1'
;------------------------------------------------------------
;	main.c:133: void timer_isr() interrupt 1
;	-----------------------------------------
;	 function timer_isr
;	-----------------------------------------
_timer_isr:
	push	acc
	push	b
	push	dpl
	push	dph
	push	(0+2)
	push	(0+3)
	push	(0+4)
	push	(0+5)
	push	(0+6)
	push	(0+7)
	push	(0+0)
	push	(0+1)
	push	psw
	mov	psw,#0x00
;	main.c:137: flag++;
;	genAssign
	mov	dptr,#_flag
	movx	a,@dptr
	mov	r2,a
;	genPlus
	mov	dptr,#_flag
;     genPlusIncr
	mov	a,#0x01
;	Peephole 236.a	used r2 instead of ar2
	add	a,r2
	movx	@dptr,a
;	main.c:138: TH0 =   0x58;
;	genAssign
	mov	_TH0,#0x58
;	main.c:139: TL0 =   0x00;
;	genAssign
	mov	_TL0,#0x00
;	main.c:141: if(flag==20)
;	genAssign
	mov	dptr,#_flag
	movx	a,@dptr
	mov	r2,a
;	genCmpEq
;	gencjneshort
	cjne	r2,#0x14,00118$
	sjmp	00119$
00118$:
	ljmp	00111$
00119$:
;	main.c:144: s++;i++;
;	genAssign
	mov	dptr,#_s
	movx	a,@dptr
	mov	r2,a
;	genPlus
	mov	dptr,#_s
;     genPlusIncr
	mov	a,#0x01
;	Peephole 236.a	used r2 instead of ar2
	add	a,r2
	movx	@dptr,a
;	genAssign
	mov	dptr,#_i
	movx	a,@dptr
	mov	r2,a
	inc	dptr
	movx	a,@dptr
	mov	r3,a
;	genPlus
	mov	dptr,#_i
;     genPlusIncr
	mov	a,#0x01
;	Peephole 236.a	used r2 instead of ar2
	add	a,r2
	movx	@dptr,a
;	Peephole 181	changed mov to clr
	clr	a
;	Peephole 236.b	used r3 instead of ar3
	addc	a,r3
	inc	dptr
	movx	@dptr,a
;	main.c:145: if(s==60){s=0;m++;}
;	genAssign
	mov	dptr,#_s
	movx	a,@dptr
	mov	r2,a
;	genCmpEq
;	gencjneshort
;	Peephole 112.b	changed ljmp to sjmp
;	Peephole 198.b	optimized misc jump sequence
	cjne	r2,#0x3C,00102$
;	Peephole 200.b	removed redundant sjmp
;	Peephole 300	removed redundant label 00120$
;	Peephole 300	removed redundant label 00121$
;	genAssign
	mov	dptr,#_s
;	Peephole 181	changed mov to clr
	clr	a
	movx	@dptr,a
;	genAssign
	mov	dptr,#_m
	movx	a,@dptr
	mov	r2,a
;	genPlus
	mov	dptr,#_m
;     genPlusIncr
	mov	a,#0x01
;	Peephole 236.a	used r2 instead of ar2
	add	a,r2
	movx	@dptr,a
00102$:
;	main.c:146: if(m==60){m=0;h++;}
;	genAssign
	mov	dptr,#_m
	movx	a,@dptr
	mov	r2,a
;	genCmpEq
;	gencjneshort
;	Peephole 112.b	changed ljmp to sjmp
;	Peephole 198.b	optimized misc jump sequence
	cjne	r2,#0x3C,00104$
;	Peephole 200.b	removed redundant sjmp
;	Peephole 300	removed redundant label 00122$
;	Peephole 300	removed redundant label 00123$
;	genAssign
	mov	dptr,#_m
;	Peephole 181	changed mov to clr
	clr	a
	movx	@dptr,a
;	genAssign
	mov	dptr,#_h
	movx	a,@dptr
	mov	r2,a
;	genPlus
	mov	dptr,#_h
;     genPlusIncr
	mov	a,#0x01
;	Peephole 236.a	used r2 instead of ar2
	add	a,r2
	movx	@dptr,a
00104$:
;	main.c:147: if(h==24){h=0;}
;	genAssign
	mov	dptr,#_h
	movx	a,@dptr
	mov	r2,a
;	genCmpEq
;	gencjneshort
;	Peephole 112.b	changed ljmp to sjmp
;	Peephole 198.b	optimized misc jump sequence
	cjne	r2,#0x18,00106$
;	Peephole 200.b	removed redundant sjmp
;	Peephole 300	removed redundant label 00124$
;	Peephole 300	removed redundant label 00125$
;	genAssign
	mov	dptr,#_h
;	Peephole 181	changed mov to clr
	clr	a
	movx	@dptr,a
00106$:
;	main.c:149: clock_control(h,m,s);
;	genAssign
	mov	dptr,#_h
	movx	a,@dptr
	mov	r2,a
;	genAssign
	mov	dptr,#_m
	movx	a,@dptr
	mov	r3,a
;	genAssign
	mov	dptr,#_s
	movx	a,@dptr
	mov	r4,a
;	genAssign
	mov	dptr,#_clock_control_PARM_2
	mov	a,r3
	movx	@dptr,a
;	genAssign
	mov	dptr,#_clock_control_PARM_3
	mov	a,r4
	movx	@dptr,a
;	genCall
	mov	dpl,r2
	lcall	_clock_control
;	main.c:151: if(i==8)
;	genAssign
	mov	dptr,#_i
	movx	a,@dptr
	mov	r2,a
	inc	dptr
	movx	a,@dptr
	mov	r3,a
;	genCmpEq
;	gencjneshort
	cjne	r2,#0x08,00126$
	cjne	r3,#0x00,00126$
	sjmp	00127$
00126$:
	ljmp	00108$
00127$:
;	main.c:153: TH0 =   0x80;
;	genAssign
	mov	_TH0,#0x80
;	main.c:154: TL0 =   0x00;
;	genAssign
	mov	_TL0,#0x00
;	main.c:158: UART=0;
;	genAssign
	clr	_P1_4
;	main.c:159: c=gps_read();
;	genCall
	lcall	_gps_read
	mov	r2,dpl
	mov	r3,dph
	mov	r4,b
;	main.c:160: UART=1;
;	genAssign
	setb	_P1_4
;	main.c:165: lcdgotoxy(1,1);
;	genAssign
	mov	dptr,#_lcdgotoxy_PARM_2
	mov	a,#0x01
	movx	@dptr,a
;	genCall
	mov	dpl,#0x01
	push	ar2
	push	ar3
	push	ar4
	lcall	_lcdgotoxy
	pop	ar4
	pop	ar3
	pop	ar2
;	main.c:167: lcdputch(gps_status(c));
;	genCall
	mov	dpl,r2
	mov	dph,r3
	mov	b,r4
	push	ar2
	push	ar3
	push	ar4
	lcall	_gps_status
	mov	r5,dpl
	pop	ar4
	pop	ar3
	pop	ar2
;	genCall
	mov	dpl,r5
	push	ar2
	push	ar3
	push	ar4
	lcall	_lcdputch
	pop	ar4
	pop	ar3
	pop	ar2
;	main.c:168: lcdputstr(gps_latitude(c));
;	genCall
	mov	dpl,r2
	mov	dph,r3
	mov	b,r4
	push	ar2
	push	ar3
	push	ar4
	lcall	_gps_latitude
	mov	r5,dpl
	mov	r6,dph
	mov	r7,b
	pop	ar4
	pop	ar3
	pop	ar2
;	genCall
	mov	dpl,r5
	mov	dph,r6
	mov	b,r7
	push	ar2
	push	ar3
	push	ar4
	lcall	_lcdputstr
	pop	ar4
	pop	ar3
	pop	ar2
;	main.c:169: lcdputstr(gps_longitude(c));
;	genCall
	mov	dpl,r2
	mov	dph,r3
	mov	b,r4
	lcall	_gps_longitude
;	genCall
	mov	r2,dpl
	mov	r3,dph
	mov	r4,b
;	Peephole 238.d	removed 3 redundant moves
	lcall	_lcdputstr
;	main.c:172: i=0;
;	genAssign
	mov	dptr,#_i
	clr	a
	movx	@dptr,a
	inc	dptr
	movx	@dptr,a
00108$:
;	main.c:177: flag=0;
;	genAssign
	mov	dptr,#_flag
;	Peephole 181	changed mov to clr
	clr	a
	movx	@dptr,a
00111$:
	pop	psw
	pop	(0+1)
	pop	(0+0)
	pop	(0+7)
	pop	(0+6)
	pop	(0+5)
	pop	(0+4)
	pop	(0+3)
	pop	(0+2)
	pop	dph
	pop	dpl
	pop	b
	pop	acc
	reti
	.area CSEG    (CODE)
	.area CONST   (CODE)
__str_0:
	.db 0x0A
	.db 0x0D
	.ascii "Temp: %d Celcius"
	.db 0x00
__str_1:
	.db 0x09
	.ascii "HUMIDITY: %d RH"
	.db 0x00
__str_2:
	.ascii "LIGHT : %d "
	.db 0x00
	.area XINIT   (CODE)
__xinit__flag:
	.db #0x00
__xinit__timers:
	.byte #0x00,#0x00
